target datalayout = "e-m:e-p270:32:32-p271:32:32-p272:64:64-i64:64-i128:128-f80:128-n8:16:32:64-S128"
target triple = "x86_64-pc-linux-gnu"

%struct.CRYPTO_REF_COUNT = type { i32 }
%struct.bio_st = type { ptr, ptr, ptr, ptr, ptr, i32, i32, i32, i32, i32, ptr, ptr, ptr, %struct.CRYPTO_REF_COUNT, i64, i64, %struct.crypto_ex_data_st }
%struct.crypto_ex_data_st = type { ptr, ptr }

@.str = private unnamed_addr constant [32 x i8] c"../openssl/crypto/bio/bio_lib.c\00", align 1
@__func__.BIO_get_line = private unnamed_addr constant [13 x i8] c"BIO_get_line\00", align 1

; Function Attrs: nounwind uwtable
define i32 @BIO_read(ptr noundef %0, ptr noundef %1, i32 noundef %2) #0 {
  %4 = alloca i32, align 4
  %5 = alloca ptr, align 8
  %6 = alloca ptr, align 8
  %7 = alloca i32, align 4
  %8 = alloca i64, align 8
  %9 = alloca i32, align 4
  %10 = alloca i32, align 4
  store ptr %0, ptr %5, align 8, !tbaa !10
  store ptr %1, ptr %6, align 8, !tbaa !25
  store i32 %2, ptr %7, align 4, !tbaa !26
  call void @llvm.lifetime.start.p0(i64 8, ptr %8) #5
  call void @llvm.lifetime.start.p0(i64 4, ptr %9) #5
  %11 = load i32, ptr %7, align 4, !tbaa !26
  %12 = icmp slt i32 %11, 0
  br i1 %12, label %13, label %14

13:                                               ; preds = %3
  store i32 0, ptr %4, align 4
  store i32 1, ptr %10, align 4
  br label %27

14:                                               ; preds = %3
  %15 = load ptr, ptr %5, align 8, !tbaa !10
  %16 = load ptr, ptr %6, align 8, !tbaa !25
  %17 = load i32, ptr %7, align 4, !tbaa !26
  %18 = sext i32 %17 to i64
  %19 = call i32 @bio_read_intern(ptr noundef %15, ptr noundef %16, i64 noundef %18, ptr noundef %8)
  store i32 %19, ptr %9, align 4, !tbaa !26
  %20 = load i32, ptr %9, align 4, !tbaa !26
  %21 = icmp sgt i32 %20, 0
  br i1 %21, label %22, label %25

22:                                               ; preds = %14
  %23 = load i64, ptr %8, align 8, !tbaa !34
  %24 = trunc i64 %23 to i32
  store i32 %24, ptr %9, align 4, !tbaa !26
  br label %25

25:                                               ; preds = %22, %14
  %26 = load i32, ptr %9, align 4, !tbaa !26
  store i32 %26, ptr %4, align 4
  store i32 1, ptr %10, align 4
  br label %27

27:                                               ; preds = %25, %13
  call void @llvm.lifetime.end.p0(i64 4, ptr %9) #5
  call void @llvm.lifetime.end.p0(i64 8, ptr %8) #5
  %28 = load i32, ptr %4, align 4
  ret i32 %28
}

; Function Attrs: nounwind uwtable
define i32 @BIO_get_line(ptr noundef %0, ptr noundef %1, i32 noundef %2) #0 {
  %4 = alloca i32, align 4
  %5 = alloca ptr, align 8
  %6 = alloca ptr, align 8
  %7 = alloca i32, align 4
  %8 = alloca i32, align 4
  %9 = alloca ptr, align 8
  %10 = alloca i32, align 4
  store ptr %0, ptr %5, align 8, !tbaa !10
  store ptr %1, ptr %6, align 8, !tbaa !33
  store i32 %2, ptr %7, align 4, !tbaa !26
  call void @llvm.lifetime.start.p0(i64 4, ptr %8) #5
  store i32 0, ptr %8, align 4, !tbaa !26
  call void @llvm.lifetime.start.p0(i64 8, ptr %9) #5
  %11 = load ptr, ptr %6, align 8, !tbaa !33
  store ptr %11, ptr %9, align 8, !tbaa !33
  %12 = load ptr, ptr %6, align 8, !tbaa !33
  %13 = icmp eq ptr %12, null
  br i1 %13, label %14, label %15

14:                                               ; preds = %3
  call void @ERR_new()
  call void @ERR_set_debug(ptr noundef @.str, i32 noundef 605, ptr noundef @__func__.BIO_get_line)
  call void (i32, i32, ptr, ...) @ERR_set_error(i32 noundef 32, i32 noundef 786690, ptr noundef null)
  store i32 -1, ptr %4, align 4
  store i32 1, ptr %10, align 4
  br label %71

15:                                               ; preds = %3
  %16 = load i32, ptr %7, align 4, !tbaa !26
  %17 = icmp sle i32 %16, 0
  br i1 %17, label %18, label %19

18:                                               ; preds = %15
  call void @ERR_new()
  call void @ERR_set_debug(ptr noundef @.str, i32 noundef 609, ptr noundef @__func__.BIO_get_line)
  call void (i32, i32, ptr, ...) @ERR_set_error(i32 noundef 32, i32 noundef 125, ptr noundef null)
  store i32 -1, ptr %4, align 4
  store i32 1, ptr %10, align 4
  br label %71

19:                                               ; preds = %15
  %20 = load ptr, ptr %6, align 8, !tbaa !33
  store i8 0, ptr %20, align 1, !tbaa !61
  %21 = load ptr, ptr %5, align 8, !tbaa !10
  %22 = icmp eq ptr %21, null
  br i1 %22, label %23, label %24

23:                                               ; preds = %19
  call void @ERR_new()
  call void @ERR_set_debug(ptr noundef @.str, i32 noundef 615, ptr noundef @__func__.BIO_get_line)
  call void (i32, i32, ptr, ...) @ERR_set_error(i32 noundef 32, i32 noundef 786690, ptr noundef null)
  store i32 -1, ptr %4, align 4
  store i32 1, ptr %10, align 4
  br label %71

24:                                               ; preds = %19
  %25 = load ptr, ptr %5, align 8, !tbaa !10
  %26 = getelementptr inbounds nuw %struct.bio_st, ptr %25, i32 0, i32 5
  %27 = load i32, ptr %26, align 8, !tbaa !24
  %28 = icmp ne i32 %27, 0
  br i1 %28, label %30, label %29

29:                                               ; preds = %24
  call void @ERR_new()
  call void @ERR_set_debug(ptr noundef @.str, i32 noundef 619, ptr noundef @__func__.BIO_get_line)
  call void (i32, i32, ptr, ...) @ERR_set_error(i32 noundef 32, i32 noundef 120, ptr noundef null)
  store i32 -1, ptr %4, align 4
  store i32 1, ptr %10, align 4
  br label %71

30:                                               ; preds = %24
  br label %31

31:                                               ; preds = %49, %30
  %32 = load i32, ptr %7, align 4, !tbaa !26
  %33 = add nsw i32 %32, -1
  store i32 %33, ptr %7, align 4, !tbaa !26
  %34 = icmp sgt i32 %32, 1
  br i1 %34, label %35, label %40

35:                                               ; preds = %31
  %36 = load ptr, ptr %5, align 8, !tbaa !10
  %37 = load ptr, ptr %9, align 8, !tbaa !33
  %38 = call i32 @BIO_read(ptr noundef %36, ptr noundef %37, i32 noundef 1)
  store i32 %38, ptr %8, align 4, !tbaa !26
  %39 = icmp sgt i32 %38, 0
  br label %40

40:                                               ; preds = %35, %31
  %41 = phi i1 [ false, %31 ], [ %39, %35 ]
  br i1 %41, label %42, label %50

42:                                               ; preds = %40
  %43 = load ptr, ptr %9, align 8, !tbaa !33
  %44 = getelementptr inbounds nuw i8, ptr %43, i32 1
  store ptr %44, ptr %9, align 8, !tbaa !33
  %45 = load i8, ptr %43, align 1, !tbaa !61
  %46 = sext i8 %45 to i32
  %47 = icmp eq i32 %46, 10
  br i1 %47, label %48, label %49

48:                                               ; preds = %42
  br label %50

49:                                               ; preds = %42
  br label %31, !llvm.loop !62

50:                                               ; preds = %48, %40
  %51 = load ptr, ptr %9, align 8, !tbaa !33
  store i8 0, ptr %51, align 1, !tbaa !61
  %52 = load i32, ptr %8, align 4, !tbaa !26
  %53 = icmp sgt i32 %52, 0
  br i1 %53, label %59, label %54

54:                                               ; preds = %50
  %55 = load ptr, ptr %5, align 8, !tbaa !10
  %56 = call i64 @BIO_ctrl(ptr noundef %55, i32 noundef 2, i64 noundef 0, ptr noundef null)
  %57 = trunc i64 %56 to i32
  %58 = icmp ne i32 %57, 0
  br i1 %58, label %59, label %65

59:                                               ; preds = %54, %50
  %60 = load ptr, ptr %9, align 8, !tbaa !33
  %61 = load ptr, ptr %6, align 8, !tbaa !33
  %62 = ptrtoint ptr %60 to i64
  %63 = ptrtoint ptr %61 to i64
  %64 = sub i64 %62, %63
  br label %68

65:                                               ; preds = %54
  %66 = load i32, ptr %8, align 4, !tbaa !26
  %67 = sext i32 %66 to i64
  br label %68

68:                                               ; preds = %65, %59
  %69 = phi i64 [ %64, %59 ], [ %67, %65 ]
  %70 = trunc i64 %69 to i32
  store i32 %70, ptr %4, align 4
  store i32 1, ptr %10, align 4
  br label %71

71:                                               ; preds = %68, %29, %23, %18, %14
  call void @llvm.lifetime.end.p0(i64 8, ptr %9) #5
  call void @llvm.lifetime.end.p0(i64 4, ptr %8) #5
  %72 = load i32, ptr %4, align 4
  ret i32 %72
}