; Function Attrs: nounwind uwtable
define i32 @BIO_get_line(ptr noundef %0, ptr noundef %1, i32 noundef %2) local_unnamed_addr #0 {
  %4 = alloca i64, align 8
  %5 = icmp eq ptr %1, null
  br i1 %5, label %6, label %7

6:                                                ; preds = %3
  tail call void @ERR_new() #14
  tail call void @ERR_set_debug(ptr noundef nonnull @.str, i32 noundef 605, ptr noundef nonnull @__func__.BIO_get_line) #14
  tail call void (i32, i32, ptr, ...) @ERR_set_error(i32 noundef 32, i32 noundef 786690, ptr noundef null) #14
  br label %35

7:                                                ; preds = %3
  %8 = icmp slt i32 %2, 1
  br i1 %8, label %9, label %10

9:                                                ; preds = %7
  tail call void @ERR_new() #14
  tail call void @ERR_set_debug(ptr noundef nonnull @.str, i32 noundef 609, ptr noundef nonnull @__func__.BIO_get_line) #14
  tail call void (i32, i32, ptr, ...) @ERR_set_error(i32 noundef 32, i32 noundef 125, ptr noundef null) #14
  br label %35

10:                                               ; preds = %7
  store i8 0, ptr %1, align 1, !tbaa !49
  %11 = icmp eq ptr %0, null
  br i1 %11, label %12, label %13

12:                                               ; preds = %10
  tail call void @ERR_new() #14
  tail call void @ERR_set_debug(ptr noundef nonnull @.str, i32 noundef 615, ptr noundef nonnull @__func__.BIO_get_line) #14
  tail call void (i32, i32, ptr, ...) @ERR_set_error(i32 noundef 32, i32 noundef 786690, ptr noundef null) #14
  br label %35

13:                                               ; preds = %10
  %14 = getelementptr inbounds nuw i8, ptr %0, i64 40
  %15 = load i32, ptr %14, align 8, !tbaa !22
  %.not = icmp eq i32 %15, 0
  br i1 %.not, label %16, label %.preheader

.preheader:                                       ; preds = %13
  %.not43 = icmp eq i32 %2, 1
  br i1 %.not43, label %.critedge.thread49, label %.lr.ph

16:                                               ; preds = %13
  tail call void @ERR_new() #14
  tail call void @ERR_set_debug(ptr noundef nonnull @.str, i32 noundef 619, ptr noundef nonnull @__func__.BIO_get_line) #14
  tail call void (i32, i32, ptr, ...) @ERR_set_error(i32 noundef 32, i32 noundef 120, ptr noundef null) #14
  br label %35

.lr.ph:                                           ; preds = %.preheader, %22
  %.in = phi i32 [ %26, %22 ], [ %2, %.preheader ]
  %.041 = phi ptr [ %23, %22 ], [ %1, %.preheader ]
  call void @llvm.lifetime.start.p0(i64 8, ptr nonnull %4) #14
  %17 = call fastcc i32 @bio_read_intern(ptr noundef nonnull %0, ptr noundef nonnull %.041, i64 noundef 1, ptr noundef nonnull %4)
  %18 = icmp sgt i32 %17, 0
  %19 = load i64, ptr %4, align 8
  %20 = trunc i64 %19 to i32
  %.0.i = select i1 %18, i32 %20, i32 %17
  call void @llvm.lifetime.end.p0(i64 8, ptr nonnull %4) #14
  %21 = icmp sgt i32 %.0.i, 0
  br i1 %21, label %22, label %.critedge.thread29

.critedge.thread29:                               ; preds = %.lr.ph
  store i8 0, ptr %.041, align 1, !tbaa !49
  br label %.critedge.thread49

22:                                               ; preds = %.lr.ph
  %23 = getelementptr inbounds nuw i8, ptr %.041, i64 1
  %24 = load i8, ptr %.041, align 1, !tbaa !49
  %25 = icmp ne i8 %24, 10
  %26 = add nsw i32 %.in, -1
  %27 = icmp sgt i32 %.in, 2
  %or.cond = select i1 %25, i1 %27, i1 false
  br i1 %or.cond, label %.lr.ph, label %.sink.split, !llvm.loop !50

.critedge.thread49:                               ; preds = %.preheader, %.critedge.thread29
  %.037 = phi ptr [ %.041, %.critedge.thread29 ], [ %1, %.preheader ]
  %.11732 = phi i32 [ %.0.i, %.critedge.thread29 ], [ 0, %.preheader ]
  %28 = call i64 @BIO_ctrl(ptr noundef nonnull %0, i32 noundef 2, i64 noundef 0, ptr noundef null)
  %29 = and i64 %28, 4294967295
  %.not25 = icmp eq i64 %29, 0
  br i1 %.not25, label %35, label %30

.sink.split:                                      ; preds = %22
  store i8 0, ptr %23, align 1, !tbaa !49
  br label %30

30:                                               ; preds = %.sink.split, %.critedge.thread49
  %.128 = phi ptr [ %.037, %.critedge.thread49 ], [ %23, %.sink.split ]
  %31 = ptrtoint ptr %.128 to i64
  %32 = ptrtoint ptr %1 to i64
  %33 = sub i64 %31, %32
  %34 = trunc i64 %33 to i32
  br label %35

35:                                               ; preds = %30, %.critedge.thread49, %16, %12, %9, %6
  %.019 = phi i32 [ -1, %6 ], [ -1, %9 ], [ -1, %12 ], [ -1, %16 ], [ %34, %30 ], [ %.11732, %.critedge.thread49 ]
  ret i32 %.019
}